; Function Attrs: mustprogress nofree norecurse nosync nounwind willreturn memory(read, argmem: readwrite, inaccessiblemem: none) uwtable
define dso_local range(i32 -1, 2097152) i32 @uv__utf8_decode1(ptr noundef captures(none) %0, ptr noundef %1) local_unnamed_addr #0 {
  %3 = load ptr, ptr %0, align 8, !tbaa !4
  %4 = getelementptr inbounds nuw i8, ptr %3, i64 1
  store ptr %4, ptr %0, align 8, !tbaa !4
  %5 = load i8, ptr %3, align 1, !tbaa !9
  %6 = zext i8 %5 to i32
  %7 = icmp sgt i8 %5, -1
  br i1 %7, label %uv__utf8_decode1_slow.exit, label %8

8:                                                ; preds = %2
  %9 = icmp samesign ugt i8 %5, -9
  br i1 %9, label %uv__utf8_decode1_slow.exit, label %10

10:                                               ; preds = %8
  %11 = ptrtoint ptr %1 to i64
  %12 = ptrtoint ptr %4 to i64
  %13 = sub i64 %11, %12
  switch i64 %13, label %14 [
    i64 2, label %26
    i64 1, label %34
    i64 0, label %uv__utf8_decode1_slow.exit
  ]

14:                                               ; preds = %10
  %15 = icmp samesign ugt i8 %5, -17
  br i1 %15, label %16, label %26

16:                                               ; preds = %14
  %17 = getelementptr inbounds nuw i8, ptr %3, i64 2
  store ptr %17, ptr %0, align 8, !tbaa !4
  %18 = load i8, ptr %4, align 1, !tbaa !9
  %19 = zext i8 %18 to i32
  %20 = getelementptr inbounds nuw i8, ptr %3, i64 3
  store ptr %20, ptr %0, align 8, !tbaa !4
  %21 = load i8, ptr %17, align 1, !tbaa !9
  %22 = zext i8 %21 to i32
  %23 = getelementptr inbounds nuw i8, ptr %3, i64 4
  store ptr %23, ptr %0, align 8, !tbaa !4
  %24 = shl nuw nsw i32 %6, 18
  %25 = and i32 %24, 1835008
  br label %39

26:                                               ; preds = %14, %10
  %27 = icmp samesign ugt i8 %5, -33
  br i1 %27, label %28, label %34

28:                                               ; preds = %26
  %29 = and i32 %6, 143
  %30 = getelementptr inbounds nuw i8, ptr %3, i64 2
  store ptr %30, ptr %0, align 8, !tbaa !4
  %31 = load i8, ptr %4, align 1, !tbaa !9
  %32 = zext i8 %31 to i32
  %33 = getelementptr inbounds nuw i8, ptr %3, i64 3
  store ptr %33, ptr %0, align 8, !tbaa !4
  br label %39

34:                                               ; preds = %26, %10
  %35 = icmp samesign ugt i8 %5, -65
  br i1 %35, label %36, label %uv__utf8_decode1_slow.exit

36:                                               ; preds = %34
  %37 = and i32 %6, 159
  %38 = getelementptr inbounds nuw i8, ptr %3, i64 2
  store ptr %38, ptr %0, align 8, !tbaa !4
  br label %39

39:                                               ; preds = %36, %28, %16
  %.035.i = phi i32 [ %25, %16 ], [ 0, %28 ], [ 0, %36 ]
  %.034.i = phi i32 [ %19, %16 ], [ %29, %28 ], [ 128, %36 ]
  %.033.i = phi i32 [ %22, %16 ], [ %32, %28 ], [ %37, %36 ]
  %.032.in.in.i = phi ptr [ %20, %16 ], [ %30, %28 ], [ %4, %36 ]
  %.0.i = phi i32 [ 65536, %16 ], [ 2048, %28 ], [ 128, %36 ]
  %.032.in.i = load i8, ptr %.032.in.in.i, align 1, !tbaa !9
  %.032.i = zext i8 %.032.in.i to i32
  %40 = xor i32 %.033.i, %.034.i
  %41 = xor i32 %40, %.032.i
  %42 = and i32 %41, 192
  %.not.i = icmp eq i32 %42, 128
  br i1 %.not.i, label %43, label %uv__utf8_decode1_slow.exit

43:                                               ; preds = %39
  %44 = and i32 %.032.i, 63
  %45 = shl nuw nsw i32 %.034.i, 12
  %46 = and i32 %45, 258048
  %47 = or disjoint i32 %46, %.035.i
  %48 = shl nuw nsw i32 %.033.i, 6
  %49 = and i32 %48, 4032
  %50 = or disjoint i32 %49, %44
  %51 = or disjoint i32 %50, %47
  %52 = icmp samesign ult i32 %51, %.0.i
  %53 = icmp samesign ugt i32 %47, 1114111
  %or.cond39.i = select i1 %52, i1 true, i1 %53
  br i1 %or.cond39.i, label %uv__utf8_decode1_slow.exit, label %54

54:                                               ; preds = %43
  %55 = icmp samesign ugt i32 %51, 55295
  %56 = icmp samesign ult i32 %47, 57344
  %or.cond.i = select i1 %55, i1 %56, i1 false
  %..i = select i1 %or.cond.i, i32 -1, i32 %51
  br label %uv__utf8_decode1_slow.exit

uv__utf8_decode1_slow.exit:                       ; preds = %54, %43, %39, %34, %10, %8, %2
  %.0 = phi i32 [ %6, %2 ], [ -1, %8 ], [ -1, %34 ], [ -1, %10 ], [ -1, %39 ], [ -1, %43 ], [ %..i, %54 ]
  ret i32 %.0
}